
Allocating common symbols
Common symbol       size              file

Algo_state_id       0x1               obj/algo.o
Algo_state          0x4               obj/algo.o
AlarmMang_state     0x4               obj/Alarm_Manager.o
LED_state_ID        0x1               obj/LED_Driver.o
Psensor_state       0x4               obj/main.o
AlarmMang_state_id  0x1               obj/Alarm_Manager.o
LED_state           0x4               obj/LED_Driver.o
Psensor_state_id    0x1               obj/main.o

Memory Configuration

Name             Origin             Length             Attributes
flash            0x0000000008000000 0x0000000000020000 xr
sram             0x0000000020000000 0x0000000000005000 xrw
*default*        0x0000000000000000 0xffffffffffffffff

Linker script and memory map


.vectors        0x0000000008000000       0x18
 *.o(.vectors*)
 .vectors       0x0000000008000000       0x18 obj/startup.o
                0x0000000008000000                vectors

.text           0x0000000008000018      0x450
 *.o(*.text)
 .text          0x0000000008000018       0x94 obj/Alarm_Manager.o
                0x0000000008000018                st_idle
                0x000000000800003c                st_Alarm_On
                0x0000000008000060                st_Alarm_Off
                0x0000000008000090                High_Pressure
 .text          0x00000000080000ac       0x84 obj/algo.o
                0x00000000080000ac                st_get_Pval
                0x00000000080000f0                st_High_Pressure_Detected
                0x0000000008000114                send_Pval
 .text          0x0000000008000130       0xc8 obj/GPIO.o
                0x0000000008000130                Delay
                0x0000000008000150                getPressureVal
                0x0000000008000168                Set_Alarm_actuator
                0x00000000080001a4                GPIO_INITIALIZATION
 .text          0x00000000080001f8       0xac obj/LED_Driver.o
                0x00000000080001f8                st_LED_init
                0x000000000800021c                st_LED_Off
                0x0000000008000244                st_LED_On
                0x000000000800026c                alarm_LED_on
                0x0000000008000288                alarm_LED_off
 .text          0x00000000080002a4       0x64 obj/main.o
                0x00000000080002a4                main
                0x00000000080002d8                setup
 .text          0x0000000008000308       0xac obj/Pressure_Sensor.o
                0x0000000008000308                st_Psensor_init
                0x000000000800032c                st_read_Pval
                0x000000000800035c                st_send_Pvalue
                0x000000000800038c                st_waiting
 .text          0x00000000080003b4       0xb4 obj/startup.o
                0x00000000080003b4                data_to_ram
                0x0000000008000404                bss_init
                0x0000000008000448                Reset_Handler
                0x000000000800045c                MM_Fault_Handler
                0x000000000800045c                H_Fault_Handler
                0x000000000800045c                Default_Handler
                0x000000000800045c                Bus_Fault_Handler
                0x000000000800045c                NMI_Handler

.glue_7         0x0000000008000468        0x0
 .glue_7        0x0000000008000468        0x0 linker stubs

.glue_7t        0x0000000008000468        0x0
 .glue_7t       0x0000000008000468        0x0 linker stubs

.vfp11_veneer   0x0000000008000468        0x0
 .vfp11_veneer  0x0000000008000468        0x0 linker stubs

.v4_bx          0x0000000008000468        0x0
 .v4_bx         0x0000000008000468        0x0 linker stubs

.iplt           0x0000000008000468        0x0
 .iplt          0x0000000008000468        0x0 obj/Alarm_Manager.o

.rel.dyn        0x0000000008000468        0x0
 .rel.iplt      0x0000000008000468        0x0 obj/Alarm_Manager.o

.rodata         0x0000000008000468        0x0
 *.o(.rodata)
                0x0000000008000468                _E_RODATA = .

.data           0x0000000020000000        0x4 load address 0x0000000008000468
                0x0000000020000000                _S_DATA = .
 *.o(.data)
 .data          0x0000000020000000        0x0 obj/Alarm_Manager.o
 .data          0x0000000020000000        0x4 obj/algo.o
 .data          0x0000000020000004        0x0 obj/GPIO.o
 .data          0x0000000020000004        0x0 obj/LED_Driver.o
 .data          0x0000000020000004        0x0 obj/main.o
 .data          0x0000000020000004        0x0 obj/Pressure_Sensor.o
 .data          0x0000000020000004        0x0 obj/startup.o
                0x0000000020000004                . = ALIGN (0x4)
                0x0000000020000004                _E_DATA = .

.igot.plt       0x0000000020000004        0x0 load address 0x000000000800046c
 .igot.plt      0x0000000020000004        0x0 obj/Alarm_Manager.o

.bss            0x0000000020000004       0x28 load address 0x000000000800046c
                0x0000000020000004                _S_BSS = .
 *.o(.bss)
 .bss           0x0000000020000004        0x0 obj/Alarm_Manager.o
 .bss           0x0000000020000004        0x4 obj/algo.o
 .bss           0x0000000020000008        0x0 obj/GPIO.o
 .bss           0x0000000020000008        0x0 obj/LED_Driver.o
 .bss           0x0000000020000008        0x0 obj/main.o
 .bss           0x0000000020000008        0x4 obj/Pressure_Sensor.o
 .bss           0x000000002000000c        0x0 obj/startup.o
 *(COMMON)
 COMMON         0x000000002000000c        0x5 obj/Alarm_Manager.o
                0x000000002000000c                AlarmMang_state
                0x0000000020000010                AlarmMang_state_id
 *fill*         0x0000000020000011        0x3 
 COMMON         0x0000000020000014        0x8 obj/algo.o
                0x0000000020000014                Algo_state_id
                0x0000000020000018                Algo_state
 COMMON         0x000000002000001c        0x8 obj/LED_Driver.o
                0x000000002000001c                LED_state_ID
                0x0000000020000020                LED_state
 COMMON         0x0000000020000024        0x5 obj/main.o
                0x0000000020000024                Psensor_state
                0x0000000020000028                Psensor_state_id
                0x000000002000002c                . = ALIGN (0x4)
 *fill*         0x0000000020000029        0x3 
                0x000000002000002c                _E_BSS = .
                0x000000002000102c                . = (. + 0x1000)
                0x000000002000102c                _stack_top = .
LOAD obj/Alarm_Manager.o
LOAD obj/algo.o
LOAD obj/GPIO.o
LOAD obj/LED_Driver.o
LOAD obj/main.o
LOAD obj/Pressure_Sensor.o
LOAD obj/startup.o
OUTPUT(bin/P1_High_Pressure_Detector.elf elf32-littlearm)

.debug_info     0x0000000000000000     0x366a
 .debug_info    0x0000000000000000      0xa1a obj/Alarm_Manager.o
 .debug_info    0x0000000000000a1a      0x142 obj/algo.o
 .debug_info    0x0000000000000b5c      0xa05 obj/GPIO.o
 .debug_info    0x0000000000001561      0xa2f obj/LED_Driver.o
 .debug_info    0x0000000000001f90      0xac0 obj/main.o
 .debug_info    0x0000000000002a50      0xa47 obj/Pressure_Sensor.o
 .debug_info    0x0000000000003497      0x1d3 obj/startup.o

.debug_abbrev   0x0000000000000000      0xab8
 .debug_abbrev  0x0000000000000000      0x1c3 obj/Alarm_Manager.o
 .debug_abbrev  0x00000000000001c3       0xdb obj/algo.o
 .debug_abbrev  0x000000000000029e      0x1de obj/GPIO.o
 .debug_abbrev  0x000000000000047c      0x1c3 obj/LED_Driver.o
 .debug_abbrev  0x000000000000063f      0x1c5 obj/main.o
 .debug_abbrev  0x0000000000000804      0x1d2 obj/Pressure_Sensor.o
 .debug_abbrev  0x00000000000009d6       0xe2 obj/startup.o

.debug_loc      0x0000000000000000      0x628
 .debug_loc     0x0000000000000000       0xe0 obj/Alarm_Manager.o
 .debug_loc     0x00000000000000e0       0xcc obj/algo.o
 .debug_loc     0x00000000000001ac      0x128 obj/GPIO.o
 .debug_loc     0x00000000000002d4      0x124 obj/LED_Driver.o
 .debug_loc     0x00000000000003f8       0x58 obj/main.o
 .debug_loc     0x0000000000000450       0xc8 obj/Pressure_Sensor.o
 .debug_loc     0x0000000000000518      0x110 obj/startup.o

.debug_aranges  0x0000000000000000       0xe0
 .debug_aranges
                0x0000000000000000       0x20 obj/Alarm_Manager.o
 .debug_aranges
                0x0000000000000020       0x20 obj/algo.o
 .debug_aranges
                0x0000000000000040       0x20 obj/GPIO.o
 .debug_aranges
                0x0000000000000060       0x20 obj/LED_Driver.o
 .debug_aranges
                0x0000000000000080       0x20 obj/main.o
 .debug_aranges
                0x00000000000000a0       0x20 obj/Pressure_Sensor.o
 .debug_aranges
                0x00000000000000c0       0x20 obj/startup.o

.debug_line     0x0000000000000000     0x106c
 .debug_line    0x0000000000000000      0x21b obj/Alarm_Manager.o
 .debug_line    0x000000000000021b      0x202 obj/algo.o
 .debug_line    0x000000000000041d      0x2df obj/GPIO.o
 .debug_line    0x00000000000006fc      0x217 obj/LED_Driver.o
 .debug_line    0x0000000000000913      0x253 obj/main.o
 .debug_line    0x0000000000000b66      0x2fe obj/Pressure_Sensor.o
 .debug_line    0x0000000000000e64      0x208 obj/startup.o

.debug_str      0x0000000000000000      0x7c1
 .debug_str     0x0000000000000000      0x561 obj/Alarm_Manager.o
                                        0x5d7 (size before relaxing)
 .debug_str     0x0000000000000561       0x7a obj/algo.o
                                        0x214 (size before relaxing)
 .debug_str     0x00000000000005db       0x4e obj/GPIO.o
                                        0x5bb (size before relaxing)
 .debug_str     0x0000000000000629       0x64 obj/LED_Driver.o
                                        0x5d5 (size before relaxing)
 .debug_str     0x000000000000068d       0x35 obj/main.o
                                        0x65c (size before relaxing)
 .debug_str     0x00000000000006c2       0x5b obj/Pressure_Sensor.o
                                        0x612 (size before relaxing)
 .debug_str     0x000000000000071d       0xa4 obj/startup.o
                                        0x22c (size before relaxing)

.comment        0x0000000000000000       0x7b
 .comment       0x0000000000000000       0x7b obj/Alarm_Manager.o
                                         0x7c (size before relaxing)
 .comment       0x000000000000007b       0x7c obj/algo.o
 .comment       0x000000000000007b       0x7c obj/GPIO.o
 .comment       0x000000000000007b       0x7c obj/LED_Driver.o
 .comment       0x000000000000007b       0x7c obj/main.o
 .comment       0x000000000000007b       0x7c obj/Pressure_Sensor.o
 .comment       0x000000000000007b       0x7c obj/startup.o

.ARM.attributes
                0x0000000000000000       0x33
 .ARM.attributes
                0x0000000000000000       0x33 obj/Alarm_Manager.o
 .ARM.attributes
                0x0000000000000033       0x33 obj/algo.o
 .ARM.attributes
                0x0000000000000066       0x33 obj/GPIO.o
 .ARM.attributes
                0x0000000000000099       0x33 obj/LED_Driver.o
 .ARM.attributes
                0x00000000000000cc       0x33 obj/main.o
 .ARM.attributes
                0x00000000000000ff       0x33 obj/Pressure_Sensor.o
 .ARM.attributes
                0x0000000000000132       0x33 obj/startup.o

.debug_frame    0x0000000000000000      0x3a4
 .debug_frame   0x0000000000000000       0x88 obj/Alarm_Manager.o
 .debug_frame   0x0000000000000088       0x74 obj/algo.o
 .debug_frame   0x00000000000000fc       0x9c obj/GPIO.o
 .debug_frame   0x0000000000000198       0xa8 obj/LED_Driver.o
 .debug_frame   0x0000000000000240       0x48 obj/main.o
 .debug_frame   0x0000000000000288       0x84 obj/Pressure_Sensor.o
 .debug_frame   0x000000000000030c       0x98 obj/startup.o
